(dp0
S'verification_status'
p1
ccopy_reg
_reconstructor
p2
(csklearn.preprocessing.label
LabelEncoder
p3
c__builtin__
object
p4
Ntp5
Rp6
(dp7
S'classes_'
p8
cnumpy.core.multiarray
_reconstruct
p9
(cnumpy
ndarray
p10
(I0
tp11
S'b'
p12
tp13
Rp14
(I1
(I3
tp15
cnumpy
dtype
p16
(S'O8'
p17
I0
I1
tp18
Rp19
(I3
S'|'
p20
NNNI-1
I-1
I63
tp21
bI00
(lp22
S'not verified'
p23
aS'source verified'
p24
aS'verified'
p25
atp26
bsbsS'term'
p27
g2
(g3
g4
Ntp28
Rp29
(dp30
g8
g9
(g10
(I0
tp31
g12
tp32
Rp33
(I1
(I2
tp34
g16
(S'O8'
p35
I0
I1
tp36
Rp37
(I3
S'|'
p38
NNNI-1
I-1
I63
tp39
bI00
(lp40
S'36'
p41
aS'60'
p42
atp43
bsbsS'Month_last_credit_pull_d'
p44
g2
(g3
g4
Ntp45
Rp46
(dp47
g8
g9
(g10
(I0
tp48
g12
tp49
Rp50
(I1
(I12
tp51
g19
I00
(lp52
S'1'
p53
aS'10'
p54
aS'11'
p55
aS'12'
p56
aS'2'
p57
aS'3'
p58
aS'4'
p59
aS'5'
p60
aS'6'
p61
aS'7'
p62
aS'8'
p63
aS'9'
p64
atp65
bsbsS'WeekDay_earliest_cr_line'
p66
g2
(g3
g4
Ntp67
Rp68
(dp69
g8
g9
(g10
(I0
tp70
g12
tp71
Rp72
(I1
(I7
tp73
g19
I00
(lp74
S'0'
p75
ag53
ag57
ag58
ag59
ag60
ag61
atp76
bsbsS'grade'
p77
g2
(g3
g4
Ntp78
Rp79
(dp80
g8
g9
(g10
(I0
tp81
g12
tp82
Rp83
(I1
(I7
tp84
g19
I00
(lp85
S'A'
p86
aS'B'
p87
aS'C'
p88
aS'D'
p89
aS'E'
p90
aS'F'
p91
aS'G'
p92
atp93
bsbsS'initial_list_status'
p94
g2
(g3
g4
Ntp95
Rp96
(dp97
g8
g9
(g10
(I0
tp98
g12
tp99
Rp100
(I1
(I2
tp101
g19
I00
(lp102
S'f'
p103
aS'w'
p104
atp105
bsbsS'WeekDay_last_credit_pull_d'
p106
g2
(g3
g4
Ntp107
Rp108
(dp109
g8
g9
(g10
(I0
tp110
g12
tp111
Rp112
(I1
(I7
tp113
g19
I00
(lp114
g75
ag53
ag57
ag58
ag59
ag60
ag61
atp115
bsbsS'sub_grade'
p116
g2
(g3
g4
Ntp117
Rp118
(dp119
g8
g9
(g10
(I0
tp120
g12
tp121
Rp122
(I1
(I35
tp123
g19
I00
(lp124
S'A1'
p125
aS'A2'
p126
aS'A3'
p127
aS'A4'
p128
aS'A5'
p129
aS'B1'
p130
aS'B2'
p131
aS'B3'
p132
aS'B4'
p133
aS'B5'
p134
aS'C1'
p135
aS'C2'
p136
aS'C3'
p137
aS'C4'
p138
aS'C5'
p139
aS'D1'
p140
aS'D2'
p141
aS'D3'
p142
aS'D4'
p143
aS'D5'
p144
aS'E1'
p145
aS'E2'
p146
aS'E3'
p147
aS'E4'
p148
aS'E5'
p149
aS'F1'
p150
aS'F2'
p151
aS'F3'
p152
aS'F4'
p153
aS'F5'
p154
aS'G1'
p155
aS'G2'
p156
aS'G3'
p157
aS'G4'
p158
aS'G5'
p159
atp160
bsbsS'Month_earliest_cr_line'
p161
g2
(g3
g4
Ntp162
Rp163
(dp164
g8
g9
(g10
(I0
tp165
g12
tp166
Rp167
(I1
(I12
tp168
g19
I00
(lp169
g53
aS'10'
p170
aS'11'
p171
aS'12'
p172
ag57
ag58
ag59
ag60
ag61
ag62
ag63
ag64
atp173
bsbsS'3dig_zip_code'
p174
g2
(g3
g4
Ntp175
Rp176
(dp177
g8
g9
(g10
(I0
tp178
g12
tp179
Rp180
(I1
(I881
tp181
g19
I00
(lp182
S'007xx'
p183
aS'010xx'
p184
aS'011xx'
p185
aS'012xx'
p186
aS'013xx'
p187
aS'014xx'
p188
aS'015xx'
p189
aS'016xx'
p190
aS'017xx'
p191
aS'018xx'
p192
aS'019xx'
p193
aS'020xx'
p194
aS'021xx'
p195
aS'022xx'
p196
aS'023xx'
p197
aS'024xx'
p198
aS'025xx'
p199
aS'026xx'
p200
aS'027xx'
p201
aS'028xx'
p202
aS'029xx'
p203
aS'030xx'
p204
aS'031xx'
p205
aS'032xx'
p206
aS'033xx'
p207
aS'034xx'
p208
aS'035xx'
p209
aS'036xx'
p210
aS'037xx'
p211
aS'038xx'
p212
aS'039xx'
p213
aS'040xx'
p214
aS'041xx'
p215
aS'044xx'
p216
aS'045xx'
p217
aS'049xx'
p218
aS'050xx'
p219
aS'051xx'
p220
aS'052xx'
p221
aS'053xx'
p222
aS'054xx'
p223
aS'056xx'
p224
aS'057xx'
p225
aS'058xx'
p226
aS'059xx'
p227
aS'060xx'
p228
aS'061xx'
p229
aS'062xx'
p230
aS'063xx'
p231
aS'064xx'
p232
aS'065xx'
p233
aS'066xx'
p234
aS'067xx'
p235
aS'068xx'
p236
aS'069xx'
p237
aS'070xx'
p238
aS'071xx'
p239
aS'072xx'
p240
aS'073xx'
p241
aS'074xx'
p242
aS'075xx'
p243
aS'076xx'
p244
aS'077xx'
p245
aS'078xx'
p246
aS'079xx'
p247
aS'080xx'
p248
aS'081xx'
p249
aS'082xx'
p250
aS'083xx'
p251
aS'084xx'
p252
aS'085xx'
p253
aS'086xx'
p254
aS'087xx'
p255
aS'088xx'
p256
aS'089xx'
p257
aS'090xx'
p258
aS'091xx'
p259
aS'092xx'
p260
aS'093xx'
p261
aS'094xx'
p262
aS'096xx'
p263
aS'098xx'
p264
aS'100xx'
p265
aS'101xx'
p266
aS'102xx'
p267
aS'103xx'
p268
aS'104xx'
p269
aS'105xx'
p270
aS'106xx'
p271
aS'107xx'
p272
aS'108xx'
p273
aS'109xx'
p274
aS'110xx'
p275
aS'111xx'
p276
aS'112xx'
p277
aS'113xx'
p278
aS'114xx'
p279
aS'115xx'
p280
aS'116xx'
p281
aS'117xx'
p282
aS'118xx'
p283
aS'119xx'
p284
aS'120xx'
p285
aS'121xx'
p286
aS'122xx'
p287
aS'123xx'
p288
aS'124xx'
p289
aS'125xx'
p290
aS'126xx'
p291
aS'127xx'
p292
aS'128xx'
p293
aS'129xx'
p294
aS'130xx'
p295
aS'131xx'
p296
aS'132xx'
p297
aS'133xx'
p298
aS'134xx'
p299
aS'135xx'
p300
aS'136xx'
p301
aS'137xx'
p302
aS'138xx'
p303
aS'139xx'
p304
aS'140xx'
p305
aS'141xx'
p306
aS'142xx'
p307
aS'143xx'
p308
aS'144xx'
p309
aS'145xx'
p310
aS'146xx'
p311
aS'147xx'
p312
aS'148xx'
p313
aS'149xx'
p314
aS'150xx'
p315
aS'151xx'
p316
aS'152xx'
p317
aS'153xx'
p318
aS'154xx'
p319
aS'155xx'
p320
aS'156xx'
p321
aS'157xx'
p322
aS'158xx'
p323
aS'159xx'
p324
aS'160xx'
p325
aS'161xx'
p326
aS'162xx'
p327
aS'163xx'
p328
aS'164xx'
p329
aS'165xx'
p330
aS'166xx'
p331
aS'167xx'
p332
aS'168xx'
p333
aS'169xx'
p334
aS'170xx'
p335
aS'171xx'
p336
aS'172xx'
p337
aS'173xx'
p338
aS'174xx'
p339
aS'175xx'
p340
aS'176xx'
p341
aS'177xx'
p342
aS'178xx'
p343
aS'179xx'
p344
aS'180xx'
p345
aS'181xx'
p346
aS'182xx'
p347
aS'183xx'
p348
aS'184xx'
p349
aS'185xx'
p350
aS'186xx'
p351
aS'187xx'
p352
aS'188xx'
p353
aS'189xx'
p354
aS'190xx'
p355
aS'191xx'
p356
aS'193xx'
p357
aS'194xx'
p358
aS'195xx'
p359
aS'196xx'
p360
aS'197xx'
p361
aS'198xx'
p362
aS'199xx'
p363
aS'200xx'
p364
aS'201xx'
p365
aS'203xx'
p366
aS'204xx'
p367
aS'206xx'
p368
aS'207xx'
p369
aS'208xx'
p370
aS'209xx'
p371
aS'210xx'
p372
aS'211xx'
p373
aS'212xx'
p374
aS'214xx'
p375
aS'215xx'
p376
aS'216xx'
p377
aS'217xx'
p378
aS'218xx'
p379
aS'219xx'
p380
aS'220xx'
p381
aS'221xx'
p382
aS'222xx'
p383
aS'223xx'
p384
aS'224xx'
p385
aS'225xx'
p386
aS'226xx'
p387
aS'227xx'
p388
aS'228xx'
p389
aS'229xx'
p390
aS'230xx'
p391
aS'231xx'
p392
aS'232xx'
p393
aS'233xx'
p394
aS'234xx'
p395
aS'235xx'
p396
aS'236xx'
p397
aS'237xx'
p398
aS'238xx'
p399
aS'239xx'
p400
aS'240xx'
p401
aS'241xx'
p402
aS'242xx'
p403
aS'243xx'
p404
aS'244xx'
p405
aS'245xx'
p406
aS'246xx'
p407
aS'247xx'
p408
aS'248xx'
p409
aS'249xx'
p410
aS'250xx'
p411
aS'251xx'
p412
aS'252xx'
p413
aS'253xx'
p414
aS'254xx'
p415
aS'255xx'
p416
aS'256xx'
p417
aS'257xx'
p418
aS'258xx'
p419
aS'259xx'
p420
aS'260xx'
p421
aS'261xx'
p422
aS'262xx'
p423
aS'263xx'
p424
aS'264xx'
p425
aS'265xx'
p426
aS'266xx'
p427
aS'267xx'
p428
aS'268xx'
p429
aS'270xx'
p430
aS'271xx'
p431
aS'272xx'
p432
aS'273xx'
p433
aS'274xx'
p434
aS'275xx'
p435
aS'276xx'
p436
aS'277xx'
p437
aS'278xx'
p438
aS'279xx'
p439
aS'280xx'
p440
aS'281xx'
p441
aS'282xx'
p442
aS'283xx'
p443
aS'284xx'
p444
aS'285xx'
p445
aS'286xx'
p446
aS'287xx'
p447
aS'288xx'
p448
aS'289xx'
p449
aS'290xx'
p450
aS'291xx'
p451
aS'292xx'
p452
aS'293xx'
p453
aS'294xx'
p454
aS'295xx'
p455
aS'296xx'
p456
aS'297xx'
p457
aS'298xx'
p458
aS'299xx'
p459
aS'300xx'
p460
aS'301xx'
p461
aS'302xx'
p462
aS'303xx'
p463
aS'304xx'
p464
aS'305xx'
p465
aS'306xx'
p466
aS'307xx'
p467
aS'308xx'
p468
aS'309xx'
p469
aS'310xx'
p470
aS'311xx'
p471
aS'312xx'
p472
aS'313xx'
p473
aS'314xx'
p474
aS'315xx'
p475
aS'316xx'
p476
aS'317xx'
p477
aS'318xx'
p478
aS'319xx'
p479
aS'320xx'
p480
aS'321xx'
p481
aS'322xx'
p482
aS'323xx'
p483
aS'324xx'
p484
aS'325xx'
p485
aS'326xx'
p486
aS'327xx'
p487
aS'328xx'
p488
aS'329xx'
p489
aS'330xx'
p490
aS'331xx'
p491
aS'332xx'
p492
aS'333xx'
p493
aS'334xx'
p494
aS'335xx'
p495
aS'336xx'
p496
aS'337xx'
p497
aS'338xx'
p498
aS'339xx'
p499
aS'340xx'
p500
aS'341xx'
p501
aS'342xx'
p502
aS'344xx'
p503
aS'346xx'
p504
aS'347xx'
p505
aS'349xx'
p506
aS'350xx'
p507
aS'351xx'
p508
aS'352xx'
p509
aS'353xx'
p510
aS'354xx'
p511
aS'355xx'
p512
aS'356xx'
p513
aS'357xx'
p514
aS'358xx'
p515
aS'359xx'
p516
aS'360xx'
p517
aS'361xx'
p518
aS'362xx'
p519
aS'363xx'
p520
aS'364xx'
p521
aS'365xx'
p522
aS'366xx'
p523
aS'367xx'
p524
aS'368xx'
p525
aS'369xx'
p526
aS'370xx'
p527
aS'371xx'
p528
aS'372xx'
p529
aS'373xx'
p530
aS'374xx'
p531
aS'375xx'
p532
aS'376xx'
p533
aS'377xx'
p534
aS'378xx'
p535
aS'379xx'
p536
aS'380xx'
p537
aS'381xx'
p538
aS'382xx'
p539
aS'383xx'
p540
aS'384xx'
p541
aS'385xx'
p542
aS'386xx'
p543
aS'387xx'
p544
aS'388xx'
p545
aS'389xx'
p546
aS'390xx'
p547
aS'391xx'
p548
aS'392xx'
p549
aS'393xx'
p550
aS'394xx'
p551
aS'395xx'
p552
aS'396xx'
p553
aS'397xx'
p554
aS'398xx'
p555
aS'400xx'
p556
aS'401xx'
p557
aS'402xx'
p558
aS'403xx'
p559
aS'404xx'
p560
aS'405xx'
p561
aS'406xx'
p562
aS'407xx'
p563
aS'408xx'
p564
aS'409xx'
p565
aS'410xx'
p566
aS'411xx'
p567
aS'412xx'
p568
aS'413xx'
p569
aS'414xx'
p570
aS'415xx'
p571
aS'416xx'
p572
aS'417xx'
p573
aS'418xx'
p574
aS'420xx'
p575
aS'421xx'
p576
aS'422xx'
p577
aS'423xx'
p578
aS'424xx'
p579
aS'425xx'
p580
aS'426xx'
p581
aS'427xx'
p582
aS'430xx'
p583
aS'431xx'
p584
aS'432xx'
p585
aS'433xx'
p586
aS'434xx'
p587
aS'435xx'
p588
aS'436xx'
p589
aS'437xx'
p590
aS'438xx'
p591
aS'439xx'
p592
aS'440xx'
p593
aS'441xx'
p594
aS'442xx'
p595
aS'443xx'
p596
aS'444xx'
p597
aS'445xx'
p598
aS'446xx'
p599
aS'447xx'
p600
aS'448xx'
p601
aS'449xx'
p602
aS'450xx'
p603
aS'451xx'
p604
aS'452xx'
p605
aS'453xx'
p606
aS'454xx'
p607
aS'455xx'
p608
aS'456xx'
p609
aS'457xx'
p610
aS'458xx'
p611
aS'460xx'
p612
aS'461xx'
p613
aS'462xx'
p614
aS'463xx'
p615
aS'464xx'
p616
aS'465xx'
p617
aS'466xx'
p618
aS'467xx'
p619
aS'468xx'
p620
aS'469xx'
p621
aS'470xx'
p622
aS'471xx'
p623
aS'472xx'
p624
aS'473xx'
p625
aS'474xx'
p626
aS'475xx'
p627
aS'476xx'
p628
aS'477xx'
p629
aS'478xx'
p630
aS'479xx'
p631
aS'480xx'
p632
aS'481xx'
p633
aS'482xx'
p634
aS'483xx'
p635
aS'484xx'
p636
aS'485xx'
p637
aS'486xx'
p638
aS'487xx'
p639
aS'488xx'
p640
aS'489xx'
p641
aS'490xx'
p642
aS'491xx'
p643
aS'492xx'
p644
aS'493xx'
p645
aS'494xx'
p646
aS'495xx'
p647
aS'496xx'
p648
aS'497xx'
p649
aS'498xx'
p650
aS'499xx'
p651
aS'500xx'
p652
aS'502xx'
p653
aS'503xx'
p654
aS'510xx'
p655
aS'514xx'
p656
aS'516xx'
p657
aS'522xx'
p658
aS'523xx'
p659
aS'524xx'
p660
aS'527xx'
p661
aS'528xx'
p662
aS'530xx'
p663
aS'531xx'
p664
aS'532xx'
p665
aS'534xx'
p666
aS'535xx'
p667
aS'537xx'
p668
aS'538xx'
p669
aS'539xx'
p670
aS'540xx'
p671
aS'541xx'
p672
aS'542xx'
p673
aS'543xx'
p674
aS'544xx'
p675
aS'545xx'
p676
aS'546xx'
p677
aS'547xx'
p678
aS'548xx'
p679
aS'549xx'
p680
aS'550xx'
p681
aS'551xx'
p682
aS'553xx'
p683
aS'554xx'
p684
aS'555xx'
p685
aS'556xx'
p686
aS'557xx'
p687
aS'558xx'
p688
aS'559xx'
p689
aS'560xx'
p690
aS'561xx'
p691
aS'562xx'
p692
aS'563xx'
p693
aS'564xx'
p694
aS'565xx'
p695
aS'566xx'
p696
aS'567xx'
p697
aS'570xx'
p698
aS'571xx'
p699
aS'572xx'
p700
aS'573xx'
p701
aS'574xx'
p702
aS'575xx'
p703
aS'576xx'
p704
aS'577xx'
p705
aS'580xx'
p706
aS'587xx'
p707
aS'590xx'
p708
aS'591xx'
p709
aS'592xx'
p710
aS'593xx'
p711
aS'594xx'
p712
aS'595xx'
p713
aS'596xx'
p714
aS'597xx'
p715
aS'598xx'
p716
aS'599xx'
p717
aS'600xx'
p718
aS'601xx'
p719
aS'602xx'
p720
aS'603xx'
p721
aS'604xx'
p722
aS'605xx'
p723
aS'606xx'
p724
aS'607xx'
p725
aS'608xx'
p726
aS'609xx'
p727
aS'610xx'
p728
aS'611xx'
p729
aS'612xx'
p730
aS'613xx'
p731
aS'614xx'
p732
aS'615xx'
p733
aS'616xx'
p734
aS'617xx'
p735
aS'618xx'
p736
aS'619xx'
p737
aS'620xx'
p738
aS'622xx'
p739
aS'623xx'
p740
aS'624xx'
p741
aS'625xx'
p742
aS'626xx'
p743
aS'627xx'
p744
aS'628xx'
p745
aS'629xx'
p746
aS'630xx'
p747
aS'631xx'
p748
aS'633xx'
p749
aS'634xx'
p750
aS'635xx'
p751
aS'636xx'
p752
aS'637xx'
p753
aS'638xx'
p754
aS'639xx'
p755
aS'640xx'
p756
aS'641xx'
p757
aS'643xx'
p758
aS'644xx'
p759
aS'645xx'
p760
aS'646xx'
p761
aS'647xx'
p762
aS'648xx'
p763
aS'650xx'
p764
aS'651xx'
p765
aS'652xx'
p766
aS'653xx'
p767
aS'654xx'
p768
aS'655xx'
p769
aS'656xx'
p770
aS'657xx'
p771
aS'658xx'
p772
aS'660xx'
p773
aS'661xx'
p774
aS'662xx'
p775
aS'663xx'
p776
aS'664xx'
p777
aS'665xx'
p778
aS'666xx'
p779
aS'667xx'
p780
aS'668xx'
p781
aS'669xx'
p782
aS'670xx'
p783
aS'671xx'
p784
aS'672xx'
p785
aS'673xx'
p786
aS'674xx'
p787
aS'675xx'
p788
aS'676xx'
p789
aS'677xx'
p790
aS'678xx'
p791
aS'679xx'
p792
aS'680xx'
p793
aS'681xx'
p794
aS'685xx'
p795
aS'688xx'
p796
aS'689xx'
p797
aS'690xx'
p798
aS'691xx'
p799
aS'700xx'
p800
aS'701xx'
p801
aS'703xx'
p802
aS'704xx'
p803
aS'705xx'
p804
aS'706xx'
p805
aS'707xx'
p806
aS'708xx'
p807
aS'710xx'
p808
aS'711xx'
p809
aS'712xx'
p810
aS'713xx'
p811
aS'714xx'
p812
aS'716xx'
p813
aS'717xx'
p814
aS'718xx'
p815
aS'719xx'
p816
aS'720xx'
p817
aS'721xx'
p818
aS'722xx'
p819
aS'723xx'
p820
aS'724xx'
p821
aS'725xx'
p822
aS'726xx'
p823
aS'727xx'
p824
aS'728xx'
p825
aS'729xx'
p826
aS'730xx'
p827
aS'731xx'
p828
aS'734xx'
p829
aS'735xx'
p830
aS'736xx'
p831
aS'737xx'
p832
aS'738xx'
p833
aS'739xx'
p834
aS'740xx'
p835
aS'741xx'
p836
aS'743xx'
p837
aS'744xx'
p838
aS'745xx'
p839
aS'746xx'
p840
aS'747xx'
p841
aS'748xx'
p842
aS'749xx'
p843
aS'750xx'
p844
aS'751xx'
p845
aS'752xx'
p846
aS'753xx'
p847
aS'754xx'
p848
aS'755xx'
p849
aS'756xx'
p850
aS'757xx'
p851
aS'758xx'
p852
aS'759xx'
p853
aS'760xx'
p854
aS'761xx'
p855
aS'762xx'
p856
aS'763xx'
p857
aS'764xx'
p858
aS'765xx'
p859
aS'766xx'
p860
aS'767xx'
p861
aS'768xx'
p862
aS'769xx'
p863
aS'770xx'
p864
aS'772xx'
p865
aS'773xx'
p866
aS'774xx'
p867
aS'775xx'
p868
aS'776xx'
p869
aS'777xx'
p870
aS'778xx'
p871
aS'779xx'
p872
aS'780xx'
p873
aS'781xx'
p874
aS'782xx'
p875
aS'783xx'
p876
aS'784xx'
p877
aS'785xx'
p878
aS'786xx'
p879
aS'787xx'
p880
aS'788xx'
p881
aS'789xx'
p882
aS'790xx'
p883
aS'791xx'
p884
aS'792xx'
p885
aS'793xx'
p886
aS'794xx'
p887
aS'795xx'
p888
aS'796xx'
p889
aS'797xx'
p890
aS'798xx'
p891
aS'799xx'
p892
aS'800xx'
p893
aS'801xx'
p894
aS'802xx'
p895
aS'803xx'
p896
aS'804xx'
p897
aS'805xx'
p898
aS'806xx'
p899
aS'807xx'
p900
aS'808xx'
p901
aS'809xx'
p902
aS'810xx'
p903
aS'811xx'
p904
aS'812xx'
p905
aS'813xx'
p906
aS'814xx'
p907
aS'815xx'
p908
aS'816xx'
p909
aS'820xx'
p910
aS'821xx'
p911
aS'822xx'
p912
aS'823xx'
p913
aS'824xx'
p914
aS'825xx'
p915
aS'826xx'
p916
aS'827xx'
p917
aS'828xx'
p918
aS'829xx'
p919
aS'830xx'
p920
aS'831xx'
p921
aS'832xx'
p922
aS'833xx'
p923
aS'834xx'
p924
aS'836xx'
p925
aS'837xx'
p926
aS'838xx'
p927
aS'840xx'
p928
aS'841xx'
p929
aS'843xx'
p930
aS'844xx'
p931
aS'845xx'
p932
aS'846xx'
p933
aS'847xx'
p934
aS'849xx'
p935
aS'850xx'
p936
aS'851xx'
p937
aS'852xx'
p938
aS'853xx'
p939
aS'855xx'
p940
aS'856xx'
p941
aS'857xx'
p942
aS'859xx'
p943
aS'860xx'
p944
aS'863xx'
p945
aS'864xx'
p946
aS'865xx'
p947
aS'870xx'
p948
aS'871xx'
p949
aS'873xx'
p950
aS'874xx'
p951
aS'875xx'
p952
aS'877xx'
p953
aS'878xx'
p954
aS'879xx'
p955
aS'880xx'
p956
aS'881xx'
p957
aS'882xx'
p958
aS'883xx'
p959
aS'884xx'
p960
aS'890xx'
p961
aS'891xx'
p962
aS'893xx'
p963
aS'894xx'
p964
aS'895xx'
p965
aS'897xx'
p966
aS'898xx'
p967
aS'900xx'
p968
aS'902xx'
p969
aS'903xx'
p970
aS'904xx'
p971
aS'905xx'
p972
aS'906xx'
p973
aS'907xx'
p974
aS'908xx'
p975
aS'909xx'
p976
aS'910xx'
p977
aS'911xx'
p978
aS'912xx'
p979
aS'913xx'
p980
aS'914xx'
p981
aS'915xx'
p982
aS'916xx'
p983
aS'917xx'
p984
aS'918xx'
p985
aS'919xx'
p986
aS'920xx'
p987
aS'921xx'
p988
aS'922xx'
p989
aS'923xx'
p990
aS'924xx'
p991
aS'925xx'
p992
aS'926xx'
p993
aS'927xx'
p994
aS'928xx'
p995
aS'929xx'
p996
aS'930xx'
p997
aS'931xx'
p998
aS'932xx'
p999
aS'933xx'
p1000
aS'934xx'
p1001
aS'935xx'
p1002
aS'936xx'
p1003
aS'937xx'
p1004
aS'938xx'
p1005
aS'939xx'
p1006
aS'940xx'
p1007
aS'941xx'
p1008
aS'942xx'
p1009
aS'943xx'
p1010
aS'944xx'
p1011
aS'945xx'
p1012
aS'946xx'
p1013
aS'947xx'
p1014
aS'948xx'
p1015
aS'949xx'
p1016
aS'950xx'
p1017
aS'951xx'
p1018
aS'952xx'
p1019
aS'953xx'
p1020
aS'954xx'
p1021
aS'955xx'
p1022
aS'956xx'
p1023
aS'957xx'
p1024
aS'958xx'
p1025
aS'959xx'
p1026
aS'960xx'
p1027
aS'961xx'
p1028
aS'962xx'
p1029
aS'963xx'
p1030
aS'965xx'
p1031
aS'967xx'
p1032
aS'968xx'
p1033
aS'969xx'
p1034
aS'970xx'
p1035
aS'971xx'
p1036
aS'972xx'
p1037
aS'973xx'
p1038
aS'974xx'
p1039
aS'975xx'
p1040
aS'976xx'
p1041
aS'977xx'
p1042
aS'978xx'
p1043
aS'979xx'
p1044
aS'980xx'
p1045
aS'981xx'
p1046
aS'982xx'
p1047
aS'983xx'
p1048
aS'984xx'
p1049
aS'985xx'
p1050
aS'986xx'
p1051
aS'988xx'
p1052
aS'989xx'
p1053
aS'990xx'
p1054
aS'991xx'
p1055
aS'992xx'
p1056
aS'993xx'
p1057
aS'994xx'
p1058
aS'995xx'
p1059
aS'996xx'
p1060
aS'997xx'
p1061
aS'998xx'
p1062
aS'999xx'
p1063
atp1064
bsbsS'purpose'
p1065
g2
(g3
g4
Ntp1066
Rp1067
(dp1068
g8
g9
(g10
(I0
tp1069
g12
tp1070
Rp1071
(I1
(I14
tp1072
g19
I00
(lp1073
S'car'
p1074
aS'credit_card'
p1075
aS'debt_consolidation'
p1076
aS'educational'
p1077
aS'home_improvement'
p1078
aS'house'
p1079
aS'major_purchase'
p1080
aS'medical'
p1081
aS'moving'
p1082
aS'other'
p1083
aS'renewable_energy'
p1084
aS'small_business'
p1085
aS'vacation'
p1086
aS'wedding'
p1087
atp1088
bsbsS'addr_state'
p1089
g2
(g3
g4
Ntp1090
Rp1091
(dp1092
g8
g9
(g10
(I0
tp1093
g12
tp1094
Rp1095
(I1
(I50
tp1096
g19
I00
(lp1097
S'AK'
p1098
aS'AL'
p1099
aS'AR'
p1100
aS'AZ'
p1101
aS'CA'
p1102
aS'CO'
p1103
aS'CT'
p1104
aS'DC'
p1105
aS'DE'
p1106
aS'FL'
p1107
aS'GA'
p1108
aS'HI'
p1109
aS'IA'
p1110
aS'ID'
p1111
aS'IL'
p1112
aS'IN'
p1113
aS'KS'
p1114
aS'KY'
p1115
aS'LA'
p1116
aS'MA'
p1117
aS'MD'
p1118
aS'ME'
p1119
aS'MI'
p1120
aS'MN'
p1121
aS'MO'
p1122
aS'MS'
p1123
aS'MT'
p1124
aS'NC'
p1125
aS'NE'
p1126
aS'NH'
p1127
aS'NJ'
p1128
aS'NM'
p1129
aS'NV'
p1130
aS'NY'
p1131
aS'OH'
p1132
aS'OK'
p1133
aS'OR'
p1134
aS'PA'
p1135
aS'RI'
p1136
aS'SC'
p1137
aS'SD'
p1138
aS'TN'
p1139
aS'TX'
p1140
aS'UT'
p1141
aS'VA'
p1142
aS'VT'
p1143
aS'WA'
p1144
aS'WI'
p1145
aS'WV'
p1146
aS'WY'
p1147
atp1148
bsbsS'1dig_zip_code'
p1149
g2
(g3
g4
Ntp1150
Rp1151
(dp1152
g8
g9
(g10
(I0
tp1153
g12
tp1154
Rp1155
(I1
(I10
tp1156
g19
I00
(lp1157
S'0xxxx'
p1158
aS'1xxxx'
p1159
aS'2xxxx'
p1160
aS'3xxxx'
p1161
aS'4xxxx'
p1162
aS'5xxxx'
p1163
aS'6xxxx'
p1164
aS'7xxxx'
p1165
aS'8xxxx'
p1166
aS'9xxxx'
p1167
atp1168
bsbsS'home_ownership'
p1169
g2
(g3
g4
Ntp1170
Rp1171
(dp1172
g8
g9
(g10
(I0
tp1173
g12
tp1174
Rp1175
(I1
(I6
tp1176
g19
I00
(lp1177
S'ANY'
p1178
aS'MORTGAGE'
p1179
aS'NONE'
p1180
aS'OTHER'
p1181
aS'OWN'
p1182
aS'RENT'
p1183
atp1184
bsbsS'2dig_zip_code'
p1185
g2
(g3
g4
Ntp1186
Rp1187
(dp1188
g8
g9
(g10
(I0
tp1189
g12
tp1190
Rp1191
(I1
(I100
tp1192
g19
I00
(lp1193
S'00xxx'
p1194
aS'01xxx'
p1195
aS'02xxx'
p1196
aS'03xxx'
p1197
aS'04xxx'
p1198
aS'05xxx'
p1199
aS'06xxx'
p1200
aS'07xxx'
p1201
aS'08xxx'
p1202
aS'09xxx'
p1203
aS'10xxx'
p1204
aS'11xxx'
p1205
aS'12xxx'
p1206
aS'13xxx'
p1207
aS'14xxx'
p1208
aS'15xxx'
p1209
aS'16xxx'
p1210
aS'17xxx'
p1211
aS'18xxx'
p1212
aS'19xxx'
p1213
aS'20xxx'
p1214
aS'21xxx'
p1215
aS'22xxx'
p1216
aS'23xxx'
p1217
aS'24xxx'
p1218
aS'25xxx'
p1219
aS'26xxx'
p1220
aS'27xxx'
p1221
aS'28xxx'
p1222
aS'29xxx'
p1223
aS'30xxx'
p1224
aS'31xxx'
p1225
aS'32xxx'
p1226
aS'33xxx'
p1227
aS'34xxx'
p1228
aS'35xxx'
p1229
aS'36xxx'
p1230
aS'37xxx'
p1231
aS'38xxx'
p1232
aS'39xxx'
p1233
aS'40xxx'
p1234
aS'41xxx'
p1235
aS'42xxx'
p1236
aS'43xxx'
p1237
aS'44xxx'
p1238
aS'45xxx'
p1239
aS'46xxx'
p1240
aS'47xxx'
p1241
aS'48xxx'
p1242
aS'49xxx'
p1243
aS'50xxx'
p1244
aS'51xxx'
p1245
aS'52xxx'
p1246
aS'53xxx'
p1247
aS'54xxx'
p1248
aS'55xxx'
p1249
aS'56xxx'
p1250
aS'57xxx'
p1251
aS'58xxx'
p1252
aS'59xxx'
p1253
aS'60xxx'
p1254
aS'61xxx'
p1255
aS'62xxx'
p1256
aS'63xxx'
p1257
aS'64xxx'
p1258
aS'65xxx'
p1259
aS'66xxx'
p1260
aS'67xxx'
p1261
aS'68xxx'
p1262
aS'69xxx'
p1263
aS'70xxx'
p1264
aS'71xxx'
p1265
aS'72xxx'
p1266
aS'73xxx'
p1267
aS'74xxx'
p1268
aS'75xxx'
p1269
aS'76xxx'
p1270
aS'77xxx'
p1271
aS'78xxx'
p1272
aS'79xxx'
p1273
aS'80xxx'
p1274
aS'81xxx'
p1275
aS'82xxx'
p1276
aS'83xxx'
p1277
aS'84xxx'
p1278
aS'85xxx'
p1279
aS'86xxx'
p1280
aS'87xxx'
p1281
aS'88xxx'
p1282
aS'89xxx'
p1283
aS'90xxx'
p1284
aS'91xxx'
p1285
aS'92xxx'
p1286
aS'93xxx'
p1287
aS'94xxx'
p1288
aS'95xxx'
p1289
aS'96xxx'
p1290
aS'97xxx'
p1291
aS'98xxx'
p1292
aS'99xxx'
p1293
atp1294
bsbsS'emp_title'
p1295
g2
(g3
g4
Ntp1296
Rp1297
(dp1298
g8
g9
(g10
(I0
tp1299
g12
tp1300
Rp1301
(I1
(I500
tp1302
g19
I00
(lp1303
S'accenture'
p1304
aS'account executive'
p1305
aS'account manager'
p1306
aS'accountant'
p1307
aS'accounting'
p1308
aS'accounting clerk'
p1309
aS'accounting manager'
p1310
aS'accounts payable'
p1311
aS'admin'
p1312
aS'admin assistant'
p1313
aS'admin asst'
p1314
aS'administration'
p1315
aS'administrative'
p1316
aS'administrative assistant'
p1317
aS'administrator'
p1318
aS'adp'
p1319
aS'aetna'
p1320
aS'agent'
p1321
aS'air traffic controller'
p1322
aS'aircraft mechanic'
p1323
aS'american airlines'
p1324
aS'american express'
p1325
aS'analyst'
p1326
aS'apple'
p1327
aS'apple inc'
p1328
aS'aramark'
p1329
aS'area manager'
p1330
aS'army'
p1331
aS'assembler'
p1332
aS'assembly'
p1333
aS'assistant branch manager'
p1334
aS'assistant director'
p1335
aS'assistant manager'
p1336
aS'assistant principal'
p1337
aS'assistant professor'
p1338
aS'assistant store manager'
p1339
aS'assistant vice president'
p1340
aS'associate'
p1341
aS'associate director'
p1342
aS'associate professor'
p1343
aS'asst manager'
p1344
aS'att'
p1345
aS'att mobility'
p1346
aS'attorney'
p1347
aS'auditor'
p1348
aS'auto technician'
p1349
aS'bae systems'
p1350
aS'bank of america'
p1351
aS'banker'
p1352
aS'bartender'
p1353
aS'bbt'
p1354
aS'best buy'
p1355
aS'bnsf railway'
p1356
aS'bny mellon'
p1357
aS'boeing'
p1358
aS'bookkeeper'
p1359
aS'booz allen hamilton'
p1360
aS'border patrol agent'
p1361
aS'branch manager'
p1362
aS'budget analyst'
p1363
aS'bus driver'
p1364
aS'bus operator'
p1365
aS'business analyst'
p1366
aS'business development'
p1367
aS'business development manager'
p1368
aS'business manager'
p1369
aS'business systems analyst'
p1370
aS'buyer'
p1371
aS'capital one'
p1372
aS'capital one bank'
p1373
aS'captain'
p1374
aS'caregiver'
p1375
aS'carpenter'
p1376
aS'carrier'
p1377
aS'case manager'
p1378
aS'cashier'
p1379
aS'centurylink'
p1380
aS'ceo'
p1381
aS'cfo'
p1382
aS'chase'
p1383
aS'chase bank'
p1384
aS'chef'
p1385
aS'cisco systems'
p1386
aS'citibank'
p1387
aS'citigroup'
p1388
aS'city carrier'
p1389
aS'city of los angeles'
p1390
aS'civil engineer'
p1391
aS'claims adjuster'
p1392
aS'clark county school district'
p1393
aS'clerical'
p1394
aS'clerk'
p1395
aS'cna'
p1396
aS'cognizant technology solutions'
p1397
aS'columbia university'
p1398
aS'comcast'
p1399
aS'conductor'
p1400
aS'consultant'
p1401
aS'contract specialist'
p1402
aS'controller'
p1403
aS'coo'
p1404
aS'cook'
p1405
aS'coordinator'
p1406
aS'correction officer'
p1407
aS'correctional officer'
p1408
aS'corrections officer'
p1409
aS'costco'
p1410
aS'costco wholesale'
p1411
aS'counselor'
p1412
aS'county of san diego'
p1413
aS'courier'
p1414
aS'cox communications'
p1415
aS'credit analyst'
p1416
aS'csc'
p1417
aS'csr'
p1418
aS'custodian'
p1419
aS'customer service'
p1420
aS'customer service manager'
p1421
aS'customer service rep'
p1422
aS'customer service representative'
p1423
aS'cvs pharmacy'
p1424
aS'data analyst'
p1425
aS'dealer'
p1426
aS'delivery driver'
p1427
aS'dell'
p1428
aS'dell inc'
p1429
aS'delta airlines'
p1430
aS'dental assistant'
p1431
aS'dental hygienist'
p1432
aS'department manager'
p1433
aS'department of defense'
p1434
aS'department of homeland security'
p1435
aS'department of justice'
p1436
aS'department of veterans affairs'
p1437
aS'dept of homeland security'
p1438
aS'dept of veterans affairs'
p1439
aS'deputy'
p1440
aS'deputy sheriff'
p1441
aS'designer'
p1442
aS'detective'
p1443
aS'director'
p1444
aS'director of nursing'
p1445
aS'director of operations'
p1446
aS'director of sales'
p1447
aS'dispatcher'
p1448
aS'district manager'
p1449
aS'district sales manager'
p1450
aS'dod'
p1451
aS'driver'
p1452
aS'educator'
p1453
aS'edward jones'
p1454
aS'electrical engineer'
p1455
aS'electrician'
p1456
aS'engineer'
p1457
aS'engineering manager'
p1458
aS'engineering technician'
p1459
aS'equipment operator'
p1460
aS'ernst young'
p1461
aS'ernst young llp'
p1462
aS'estimator'
p1463
aS'executive assistant'
p1464
aS'executive chef'
p1465
aS'executive director'
p1466
aS'faa'
p1467
aS'facility manager'
p1468
aS'farmers insurance'
p1469
aS'fbi'
p1470
aS'federal aviation administration'
p1471
aS'federal bureau of prisons'
p1472
aS'federal government'
p1473
aS'fedex'
p1474
aS'fedex express'
p1475
aS'fedex freight'
p1476
aS'fidelity investments'
p1477
aS'field engineer'
p1478
aS'fifth third bank'
p1479
aS'finance'
p1480
aS'finance manager'
p1481
aS'financial advisor'
p1482
aS'financial analyst'
p1483
aS'firefighter'
p1484
aS'firefighterparamedic'
p1485
aS'fiserv'
p1486
aS'flight attendant'
p1487
aS'foreman'
p1488
aS'forklift driver'
p1489
aS'forklift operator'
p1490
aS'forman'
p1491
aS'frito lay'
p1492
aS'gap inc'
p1493
aS'geico'
p1494
aS'general dynamics'
p1495
aS'general electric'
p1496
aS'general manager'
p1497
aS'general motors'
p1498
aS'gm'
p1499
aS'graphic designer'
p1500
aS'heavy equipment operator'
p1501
aS'hewlett packard'
p1502
aS'home depot'
p1503
aS'honeywell'
p1504
aS'housekeeper'
p1505
aS'hr manager'
p1506
aS'hr specialist'
p1507
aS'human resources'
p1508
aS'human resources manager'
p1509
aS'ibm'
p1510
aS'inside sales'
p1511
aS'inspector'
p1512
aS'installer'
p1513
aS'instructor'
p1514
aS'insurance agent'
p1515
aS'internal revenue service'
p1516
aS'international paper'
p1517
aS'investigator'
p1518
aS'irs'
p1519
aS'it'
p1520
aS'it analyst'
p1521
aS'it director'
p1522
aS'it manager'
p1523
aS'it project manager'
p1524
aS'it specialist'
p1525
aS'jp morgan chase'
p1526
aS'jpmorgan chase'
p1527
aS'jpmorgan chase bank'
p1528
aS'kaiser'
p1529
aS'kaiser permanente'
p1530
aS'kpmg llp'
p1531
aS'kroger'
p1532
aS'l3 communications'
p1533
aS'lab tech'
p1534
aS'labor'
p1535
aS'laborer'
p1536
aS'lausd'
p1537
aS'lead'
p1538
aS'legal assistant'
p1539
aS'legal secretary'
p1540
aS'letter carrier'
p1541
aS'lieutenant'
p1542
aS'lineman'
p1543
aS'loan officer'
p1544
aS'loan processor'
p1545
aS'lockheed martin'
p1546
aS'locomotive engineer'
p1547
aS'logistics manager'
p1548
aS'los angeles county'
p1549
aS'los angeles unified school district'
p1550
aS'lowes'
p1551
aS'lpn'
p1552
aS'lvn'
p1553
aS'machine operator'
p1554
aS'machinist'
p1555
aS'macys'
p1556
aS'mail carrier'
p1557
aS'maintenance'
p1558
aS'maintenance manager'
p1559
aS'maintenance mechanic'
p1560
aS'maintenance supervisor'
p1561
aS'maintenance tech'
p1562
aS'maintenance technician'
p1563
aS'management'
p1564
aS'management analyst'
p1565
aS'manager'
p1566
aS'managing director'
p1567
aS'marketing'
p1568
aS'marketing director'
p1569
aS'marketing manager'
p1570
aS'massage therapist'
p1571
aS'material handler'
p1572
aS'mayo clinic'
p1573
aS'mcdonalds'
p1574
aS'mechanic'
p1575
aS'mechanical engineer'
p1576
aS'medical assistant'
p1577
aS'medical biller'
p1578
aS'medical technologist'
p1579
aS'merrill lynch'
p1580
aS'metlife'
p1581
aS'microsoft'
p1582
aS'military'
p1583
aS'morgan stanley'
p1584
aS'nationwide insurance'
p1585
aS'network administrator'
p1586
aS'network engineer'
p1587
aS'nordstrom'
p1588
aS'northrop grumman'
p1589
aS'nurse'
p1590
aS'nurse manager'
p1591
aS'nurse practitioner'
p1592
aS'nyc department of education'
p1593
aS'nypd'
p1594
aS'occupational therapist'
p1595
aS'office administrator'
p1596
aS'office assistant'
p1597
aS'office manager'
p1598
aS'officer'
p1599
aS'operations'
p1600
aS'operations manager'
p1601
aS'operations supervisor'
p1602
aS'operator'
p1603
aS'oracle'
p1604
aS'owner'
p1605
aS'painter'
p1606
aS'paralegal'
p1607
aS'paramedic'
p1608
aS'partner'
p1609
aS'parts manager'
p1610
aS'pastor'
p1611
aS'pepsico'
p1612
aS'personal banker'
p1613
aS'pharmacist'
p1614
aS'pharmacy manager'
p1615
aS'pharmacy tech'
p1616
aS'pharmacy technician'
p1617
aS'phlebotomist'
p1618
aS'physical therapist'
p1619
aS'physical therapist assistant'
p1620
aS'physician'
p1621
aS'physician assistant'
p1622
aS'pilot'
p1623
aS'planner'
p1624
aS'plant manager'
p1625
aS'plumber'
p1626
aS'pnc bank'
p1627
aS'police officer'
p1628
aS'police sergeant'
p1629
aS'president'
p1630
aS'pricewaterhousecoopers'
p1631
aS'principal'
p1632
aS'probation officer'
p1633
aS'processor'
p1634
aS'product manager'
p1635
aS'production'
p1636
aS'production manager'
p1637
aS'production supervisor'
p1638
aS'professor'
p1639
aS'program analyst'
p1640
aS'program coordinator'
p1641
aS'program director'
p1642
aS'program manager'
p1643
aS'program specialist'
p1644
aS'programmer'
p1645
aS'programmer analyst'
p1646
aS'project coordinator'
p1647
aS'project engineer'
p1648
aS'project manager'
p1649
aS'property manager'
p1650
aS'purchasing'
p1651
aS'purchasing manager'
p1652
aS'quality assurance'
p1653
aS'quality engineer'
p1654
aS'quality manager'
p1655
aS'quest diagnostics'
p1656
aS'radiologic technologist'
p1657
aS'raytheon'
p1658
aS'realtor'
p1659
aS'receptionist'
p1660
aS'recruiter'
p1661
aS'regional manager'
p1662
aS'regional sales manager'
p1663
aS'registered nurse'
p1664
aS'relationship banker'
p1665
aS'respiratory therapist'
p1666
aS'retired'
p1667
aS'rite aid'
p1668
aS'rn'
p1669
aS'rural carrier'
p1670
aS'safeway'
p1671
aS'saic'
p1672
aS'sales'
p1673
aS'sales associate'
p1674
aS'sales consultant'
p1675
aS'sales director'
p1676
aS'sales executive'
p1677
aS'sales manager'
p1678
aS'sales rep'
p1679
aS'sales representative'
p1680
aS'salesman'
p1681
aS'sams club'
p1682
aS'school counselor'
p1683
aS'scientist'
p1684
aS'sears'
p1685
aS'secretary'
p1686
aS'security'
p1687
aS'security guard'
p1688
aS'security officer'
p1689
aS'self'
p1690
aS'self employed'
p1691
aS'selfemployed'
p1692
aS'senior accountant'
p1693
aS'senior analyst'
p1694
aS'senior associate'
p1695
aS'senior business analyst'
p1696
aS'senior consultant'
p1697
aS'senior engineer'
p1698
aS'senior manager'
p1699
aS'senior project manager'
p1700
aS'senior software engineer'
p1701
aS'senior vice president'
p1702
aS'sergeant'
p1703
aS'server'
p1704
aS'service advisor'
p1705
aS'service manager'
p1706
aS'service tech'
p1707
aS'service technician'
p1708
aS'shift supervisor'
p1709
aS'siemens'
p1710
aS'site manager'
p1711
aS'social security administration'
p1712
aS'social worker'
p1713
aS'sodexo'
p1714
aS'software developer'
p1715
aS'software engineer'
p1716
aS'southwest airlines'
p1717
aS'special agent'
p1718
aS'special education teacher'
p1719
aS'specialist'
p1720
aS'sprint'
p1721
aS'sr financial analyst'
p1722
aS'sr manager'
p1723
aS'sr project manager'
p1724
aS'staff accountant'
p1725
aS'staff nurse'
p1726
aS'staples'
p1727
aS'state farm'
p1728
aS'state farm insurance'
p1729
aS'state of california'
p1730
aS'state of florida'
p1731
aS'state of michigan'
p1732
aS'store manager'
p1733
aS'suntrust bank'
p1734
aS'superintendent'
p1735
aS'supervisor'
p1736
aS'system administrator'
p1737
aS'system analyst'
p1738
aS'systems administrator'
p1739
aS'systems analyst'
p1740
aS'systems engineer'
p1741
aS'table games dealer'
p1742
aS'target'
p1743
aS'td bank'
p1744
aS'teacher'
p1745
aS'teachercoach'
p1746
aS'team lead'
p1747
aS'team leader'
p1748
aS'tech'
p1749
aS'technician'
p1750
aS'teller'
p1751
aS'territory manager'
p1752
aS'the boeing company'
p1753
aS'the hartford'
p1754
aS'the home depot'
p1755
aS'therapist'
p1756
aS'thomson reuters'
p1757
aS'time warner cable'
p1758
aS'tmobile'
p1759
aS'trader joes'
p1760
aS'trainer'
p1761
aS'truck driver'
p1762
aS'u s postal service'
p1763
aS'underwriter'
p1764
aS'union bank'
p1765
aS'union pacific railroad'
p1766
aS'united airlines'
p1767
aS'united healthcare'
p1768
aS'united parcel service'
p1769
aS'united states air force'
p1770
aS'united states army'
p1771
aS'united states marine corps'
p1772
aS'united states navy'
p1773
aS'united states postal service'
p1774
aS'unknown'
p1775
aS'ups'
p1776
aS'us air force'
p1777
aS'us army'
p1778
aS'us bank'
p1779
aS'us coast guard'
p1780
aS'us government'
p1781
aS'us navy'
p1782
aS'us postal service'
p1783
aS'usaf'
p1784
aS'usmc'
p1785
aS'usps'
p1786
aS'va medical center'
p1787
aS'verizon'
p1788
aS'verizon wireless'
p1789
aS'vice president'
p1790
aS'vp'
p1791
aS'waiter'
p1792
aS'walgreens'
p1793
aS'walmart'
p1794
aS'warehouse'
p1795
aS'warehouse manager'
p1796
aS'warehouse supervisor'
p1797
aS'web developer'
p1798
aS'welder'
p1799
aS'wells fargo'
p1800
aS'wells fargo bank'
p1801
aS'whole foods market'
p1802
aS'xerox'
p1803
atp1804
bsbs.