c__builtin__
set
p0
((lp1
S'detective'
p2
aS'senior engineer'
p3
aS'branch manager'
p4
aS'chase bank'
p5
aS'account executive'
p6
aS'probation officer'
p7
aS'gm'
p8
aS'captain'
p9
aS'loan officer'
p10
aS'material handler'
p11
aS'staff accountant'
p12
aS'machine operator'
p13
aS'physical therapist assistant'
p14
aS'northrop grumman'
p15
aS'security officer'
p16
aS'assembler'
p17
aS'sales consultant'
p18
aS'delivery driver'
p19
aS'software developer'
p20
aS'cook'
p21
aS'faa'
p22
aS'southwest airlines'
p23
aS'territory manager'
p24
aS'staples'
p25
aS'sales representative'
p26
aS'manager'
p27
aS'suntrust bank'
p28
aS'medical biller'
p29
aS'ups'
p30
aS'it manager'
p31
aS'cfo'
p32
aS'bus driver'
p33
aS'state of california'
p34
aS'managing director'
p35
aS'union pacific railroad'
p36
aS'sales manager'
p37
aS'general manager'
p38
aS'senior vice president'
p39
aS'general motors'
p40
aS'wells fargo'
p41
aS'paralegal'
p42
aS'field engineer'
p43
aS'production manager'
p44
aS'nurse'
p45
aS'specialist'
p46
aS'clerk'
p47
aS'fedex freight'
p48
aS'teacher'
p49
aS'selfemployed'
p50
aS'insurance agent'
p51
aS'mechanical engineer'
p52
aS'assistant manager'
p53
aS'bank of america'
p54
aS'usps'
p55
aS'bookkeeper'
p56
aS'cognizant technology solutions'
p57
aS'military'
p58
aS'welder'
p59
aS'senior accountant'
p60
aS'trainer'
p61
aS'retired'
p62
aS'truck driver'
p63
aS'deputy'
p64
aS'maintenance mechanic'
p65
aS'geico'
p66
aS'fbi'
p67
aS'los angeles county'
p68
aS'senior business analyst'
p69
aS'army'
p70
aS'executive assistant'
p71
aS'comcast'
p72
aS'maintenance technician'
p73
aS'conductor'
p74
aS'international paper'
p75
aS'cashier'
p76
aS'account manager'
p77
aS'agent'
p78
aS'underwriter'
p79
aS'nypd'
p80
aS'network administrator'
p81
aS'vp'
p82
aS'bartender'
p83
aS'ibm'
p84
aS'office assistant'
p85
aS'pharmacy manager'
p86
aS'mechanic'
p87
aS'machinist'
p88
aS'locomotive engineer'
p89
aS'dental hygienist'
p90
aS'united states navy'
p91
aS'social worker'
p92
aS'corrections officer'
p93
aS'cox communications'
p94
aS'graphic designer'
p95
aS'it analyst'
p96
aS'macys'
p97
aS'csc'
p98
aS'estimator'
p99
aS'associate director'
p100
aS'team leader'
p101
aS'banker'
p102
aS'administrator'
p103
aS'designer'
p104
aS'phlebotomist'
p105
aS'wells fargo bank'
p106
aS'dell'
p107
aS'financial advisor'
p108
aS'state farm'
p109
aS'sr financial analyst'
p110
aS'sales associate'
p111
aS'boeing'
p112
aS'business systems analyst'
p113
aS'pharmacy tech'
p114
aS'it director'
p115
aS'director of operations'
p116
aS'operations'
p117
aS'us bank'
p118
aS'it specialist'
p119
aS'program director'
p120
aS'fiserv'
p121
aS'walgreens'
p122
aS'los angeles unified school district'
p123
aS'united states postal service'
p124
aS'contract specialist'
p125
aS'scientist'
p126
aS'american airlines'
p127
aS'installer'
p128
aS'mcdonalds'
p129
aS'ernst young'
p130
aS'nordstrom'
p131
aS'air traffic controller'
p132
aS'social security administration'
p133
aS'labor'
p134
aS'production'
p135
aS'systems engineer'
p136
aS'civil engineer'
p137
aS'sr project manager'
p138
aS'regional sales manager'
p139
aS'citigroup'
p140
aS'budget analyst'
p141
aS'morgan stanley'
p142
aS'frito lay'
p143
aS'finance'
p144
aS'ceo'
p145
aS'business development'
p146
aS'service tech'
p147
aS'teller'
p148
aS'assistant principal'
p149
aS'the boeing company'
p150
aS'store manager'
p151
aS'raytheon'
p152
aS'shift supervisor'
p153
aS'safeway'
p154
aS'csr'
p155
aS'project engineer'
p156
aS'sales executive'
p157
aS'radiologic technologist'
p158
aS'property manager'
p159
aS'accounting clerk'
p160
aS'sears'
p161
aS'jpmorgan chase'
p162
aS'sams club'
p163
aS'programmer'
p164
aS'salesman'
p165
aS'project manager'
p166
aS'nationwide insurance'
p167
aS'systems administrator'
p168
aS'federal government'
p169
aS'associate professor'
p170
aS'police sergeant'
p171
aS'rn'
p172
aS'heavy equipment operator'
p173
aS'associate'
p174
aS'trader joes'
p175
aS'accounts payable'
p176
aS'lausd'
p177
aS'dispatcher'
p178
aS'department manager'
p179
aS'self employed'
p180
aS'laborer'
p181
aS'assistant store manager'
p182
aS'waiter'
p183
aS'warehouse manager'
p184
aS'us coast guard'
p185
aS'data analyst'
p186
aS'program specialist'
p187
aS'att'
p188
aS'l3 communications'
p189
aS'the home depot'
p190
aS'verizon wireless'
p191
aS'asst manager'
p192
aS'office administrator'
p193
aS'marketing director'
p194
aS'bus operator'
p195
aS'director of nursing'
p196
aS'president'
p197
aS'owner'
p198
aS'cvs pharmacy'
p199
aS'engineer'
p200
aS'management'
p201
aS'maintenance manager'
p202
aS'unknown'
p203
aS'accounting manager'
p204
aS'pricewaterhousecoopers'
p205
aS'medical technologist'
p206
aS'sergeant'
p207
aS'columbia university'
p208
aS'dental assistant'
p209
aS'courier'
p210
aS'state of michigan'
p211
aS'security guard'
p212
aS'lockheed martin'
p213
aS'capital one'
p214
aS'customer service manager'
p215
aS'united parcel service'
p216
aS'flight attendant'
p217
aS'chef'
p218
aS'marketing manager'
p219
aS'target'
p220
aS'school counselor'
p221
aS'citibank'
p222
aS'pharmacy technician'
p223
aS'maintenance supervisor'
p224
aS'system analyst'
p225
aS'delta airlines'
p226
aS'systems analyst'
p227
aS'case manager'
p228
aS'service manager'
p229
aS'us postal service'
p230
aS'director of sales'
p231
aS'thomson reuters'
p232
aS'booz allen hamilton'
p233
aS'dell inc'
p234
aS'self'
p235
aS'purchasing'
p236
aS'dept of veterans affairs'
p237
aS'united states marine corps'
p238
aS'loan processor'
p239
aS'educator'
p240
aS'pharmacist'
p241
aS'fedex express'
p242
aS'foreman'
p243
aS'xerox'
p244
aS'fidelity investments'
p245
aS'firefighterparamedic'
p246
aS'nyc department of education'
p247
aS'realtor'
p248
aS'plumber'
p249
aS'maintenance tech'
p250
aS'us government'
p251
aS'costco wholesale'
p252
aS'occupational therapist'
p253
aS'professor'
p254
aS'department of veterans affairs'
p255
aS'dod'
p256
aS'assistant branch manager'
p257
aS'lpn'
p258
aS'tech'
p259
aS'nurse practitioner'
p260
aS'inside sales'
p261
aS'county of san diego'
p262
aS'microsoft'
p263
aS'correction officer'
p264
aS'pnc bank'
p265
aS'rural carrier'
p266
aS'city carrier'
p267
aS'plant manager'
p268
aS'hr specialist'
p269
aS'therapist'
p270
aS'principal'
p271
aS'finance manager'
p272
aS'police officer'
p273
aS'lab tech'
p274
aS'business development manager'
p275
aS'personal banker'
p276
aS'capital one bank'
p277
aS'custodian'
p278
aS'time warner cable'
p279
aS'it project manager'
p280
aS'buyer'
p281
aS'legal secretary'
p282
aS'state of florida'
p283
aS'tmobile'
p284
aS'correctional officer'
p285
aS'forklift operator'
p286
aS'claims adjuster'
p287
aS'engineering technician'
p288
aS'secretary'
p289
aS'clark county school district'
p290
aS'logistics manager'
p291
aS'letter carrier'
p292
aS'massage therapist'
p293
aS'teachercoach'
p294
aS'facility manager'
p295
aS'merrill lynch'
p296
aS'saic'
p297
aS'service technician'
p298
aS'irs'
p299
aS'dept of homeland security'
p300
aS'web developer'
p301
aS'apple inc'
p302
aS'bnsf railway'
p303
aS'sr manager'
p304
aS'human resources manager'
p305
aS'business manager'
p306
aS'att mobility'
p307
aS'customer service'
p308
aS'executive director'
p309
aS'counselor'
p310
aS'admin'
p311
aS'senior consultant'
p312
aS'production supervisor'
p313
aS'sales rep'
p314
aS'electrical engineer'
p315
aS'quality assurance'
p316
aS'coo'
p317
aS'software engineer'
p318
aS'united airlines'
p319
aS'senior associate'
p320
aS'electrician'
p321
aS'home depot'
p322
aS'registered nurse'
p323
aS'investigator'
p324
aS'u s postal service'
p325
aS'the hartford'
p326
aS'senior manager'
p327
aS'ernst young llp'
p328
aS'maintenance'
p329
aS'office manager'
p330
aS'business analyst'
p331
aS'verizon'
p332
aS'controller'
p333
aS'planner'
p334
aS'respiratory therapist'
p335
aS'mayo clinic'
p336
aS'parts manager'
p337
aS'instructor'
p338
aS'medical assistant'
p339
aS'painter'
p340
aS'pilot'
p341
aS'physician'
p342
aS'united healthcare'
p343
aS'physical therapist'
p344
aS'consultant'
p345
aS'united states army'
p346
aS'american express'
p347
aS'receptionist'
p348
aS'department of defense'
p349
aS'project coordinator'
p350
aS'department of justice'
p351
aS'kroger'
p352
aS'it'
p353
aS'customer service rep'
p354
aS'table games dealer'
p355
aS'partner'
p356
aS'inspector'
p357
aS'regional manager'
p358
aS'chase'
p359
aS'clerical'
p360
aS'admin asst'
p361
aS'fifth third bank'
p362
aS'bae systems'
p363
aS'administration'
p364
aS'honeywell'
p365
aS'edward jones'
p366
aS'special education teacher'
p367
aS'farmers insurance'
p368
aS'driver'
p369
aS'director'
p370
aS'operations supervisor'
p371
aS'walmart'
p372
aS'general electric'
p373
aS'financial analyst'
p374
aS'metlife'
p375
aS'site manager'
p376
aS'sales director'
p377
aS'lowes'
p378
aS'auditor'
p379
aS'program manager'
p380
aS'programmer analyst'
p381
aS'physician assistant'
p382
aS'rite aid'
p383
aS'us army'
p384
aS'quest diagnostics'
p385
aS'caregiver'
p386
aS'apple'
p387
aS'purchasing manager'
p388
aS'lineman'
p389
aS'adp'
p390
aS'management analyst'
p391
aS'executive chef'
p392
aS'program analyst'
p393
aS'quality engineer'
p394
aS'administrative'
p395
aS'federal bureau of prisons'
p396
aS'mail carrier'
p397
aS'admin assistant'
p398
aS'siemens'
p399
aS'administrative assistant'
p400
aS'legal assistant'
p401
aS'senior software engineer'
p402
aS'forman'
p403
aS'area manager'
p404
aS'housekeeper'
p405
aS'relationship banker'
p406
aS'city of los angeles'
p407
aS'server'
p408
aS'officer'
p409
aS'security'
p410
aS'forklift driver'
p411
aS'senior analyst'
p412
aS'attorney'
p413
aS'special agent'
p414
aS'superintendent'
p415
aS'vice president'
p416
aS'jpmorgan chase bank'
p417
aS'engineering manager'
p418
aS'system administrator'
p419
aS'cisco systems'
p420
aS'sprint'
p421
aS'hewlett packard'
p422
aS'district manager'
p423
aS'kaiser'
p424
aS'lead'
p425
aS'fedex'
p426
aS'cna'
p427
aS'state farm insurance'
p428
aS'assembly'
p429
aS'marketing'
p430
aS'aramark'
p431
aS'usaf'
p432
aS'program coordinator'
p433
aS'lieutenant'
p434
aS'department of homeland security'
p435
aS'centurylink'
p436
aS'pepsico'
p437
aS'gap inc'
p438
aS'union bank'
p439
aS'carrier'
p440
aS'team lead'
p441
aS'bny mellon'
p442
aS'processor'
p443
aS'hr manager'
p444
aS'jp morgan chase'
p445
aS'internal revenue service'
p446
aS'district sales manager'
p447
aS'operator'
p448
aS'kpmg llp'
p449
aS'service advisor'
p450
aS'td bank'
p451
aS'recruiter'
p452
aS'firefighter'
p453
aS'senior project manager'
p454
aS'accountant'
p455
aS'product manager'
p456
aS'kaiser permanente'
p457
aS'whole foods market'
p458
aS'va medical center'
p459
aS'network engineer'
p460
aS'credit analyst'
p461
aS'pastor'
p462
aS'assistant professor'
p463
aS'technician'
p464
aS'operations manager'
p465
aS'costco'
p466
aS'analyst'
p467
aS'customer service representative'
p468
aS'bbt'
p469
aS'staff nurse'
p470
aS'general dynamics'
p471
aS'lvn'
p472
aS'supervisor'
p473
aS'human resources'
p474
aS'sales'
p475
aS'coordinator'
p476
aS'accenture'
p477
aS'best buy'
p478
aS'border patrol agent'
p479
aS'accounting'
p480
aS'united states air force'
p481
aS'dealer'
p482
aS'federal aviation administration'
p483
aS'assistant director'
p484
aS'auto technician'
p485
aS'warehouse'
p486
aS'sodexo'
p487
aS'us air force'
p488
aS'quality manager'
p489
aS'equipment operator'
p490
aS'us navy'
p491
aS'carpenter'
p492
aS'aircraft mechanic'
p493
aS'nurse manager'
p494
aS'usmc'
p495
aS'deputy sheriff'
p496
aS'warehouse supervisor'
p497
aS'aetna'
p498
aS'oracle'
p499
aS'paramedic'
p500
aS'assistant vice president'
p501
atp502
Rp503
.